target datalayout = "e-m:e-p270:32:32-p271:32:32-p272:64:64-i64:64-i128:128-f80:128-n8:16:32:64-S128"
target triple = "x86_64-pc-linux-gnu"

%struct.sigload_progress = type { i64, i64, i8 }

@stdout = external global ptr, align 8
@.str.52 = private unnamed_addr constant [2 x i8] c"\0A\00", align 1
@.str.136 = private unnamed_addr constant [6 x i8] c"\1B[?7l\00", align 1
@.str.137 = private unnamed_addr constant [12 x i8] c"Loading:   \00", align 1
@.str.138 = private unnamed_addr constant [16 x i8] c"               \00", align 1
@.str.139 = private unnamed_addr constant [8 x i8] c", ETA: \00", align 1
@.str.140 = private unnamed_addr constant [2 x i8] c" \00", align 1
@.str.141 = private unnamed_addr constant [2 x i8] c"[\00", align 1
@.str.142 = private unnamed_addr constant [2 x i8] c"=\00", align 1
@.str.143 = private unnamed_addr constant [2 x i8] c">\00", align 1
@.str.144 = private unnamed_addr constant [3 x i8] c"] \00", align 1
@.str.145 = private unnamed_addr constant [2 x i8] c"/\00", align 1
@.str.146 = private unnamed_addr constant [10 x i8] c" sigs    \00", align 1
@.str.147 = private unnamed_addr constant [2 x i8] c"\0D\00", align 1
@.str.148 = private unnamed_addr constant [6 x i8] c"\1B[?7h\00", align 1
@.str.149 = private unnamed_addr constant [15 x i8] c"%2lldh %02lldm\00", align 1
@.str.150 = private unnamed_addr constant [15 x i8] c"%2lldm %02llds\00", align 1
@.str.151 = private unnamed_addr constant [7 x i8] c"%3llds\00", align 1
@.str.152 = private unnamed_addr constant [8 x i8] c"%7.02fM\00", align 1
@.str.153 = private unnamed_addr constant [7 x i8] c"%.02fM\00", align 1
@.str.154 = private unnamed_addr constant [8 x i8] c"%7.02fK\00", align 1
@.str.155 = private unnamed_addr constant [7 x i8] c"%.02fK\00", align 1
@.str.156 = private unnamed_addr constant [5 x i8] c"%8zu\00", align 1
@.str.157 = private unnamed_addr constant [4 x i8] c"%zu\00", align 1

; Function Attrs: nounwind uwtable
define internal void @print_num_sigs(i64 noundef %0, i32 noundef %1) #0 {
  %3 = alloca i64, align 8
  %4 = alloca i32, align 4
  %5 = alloca ptr, align 8
  %6 = alloca double, align 8
  %7 = alloca ptr, align 8
  %8 = alloca double, align 8
  %9 = alloca ptr, align 8
  store i64 %0, ptr %3, align 8
  store i32 %1, ptr %4, align 4
  %10 = load i64, ptr %3, align 8
  %11 = icmp uge i64 %10, 1000000
  br i1 %11, label %12, label %23

12:                                               ; preds = %2
  %13 = load i32, ptr %4, align 4
  %14 = icmp ne i32 %13, 0
  %15 = select i1 %14, ptr @.str.152, ptr @.str.153
  store ptr %15, ptr %5, align 8
  %16 = load i64, ptr %3, align 8
  %17 = uitofp i64 %16 to double
  %18 = fdiv double %17, 1.000000e+06
  store double %18, ptr %6, align 8
  %19 = load ptr, ptr @stdout, align 8
  %20 = load ptr, ptr %5, align 8
  %21 = load double, ptr %6, align 8
  %22 = call i32 (ptr, ptr, ...) @fprintf(ptr noundef %19, ptr noundef %20, double noundef %21) #12
  br label %46

23:                                               ; preds = %2
  %24 = load i64, ptr %3, align 8
  %25 = icmp uge i64 %24, 1000
  br i1 %25, label %26, label %37

26:                                               ; preds = %23
  %27 = load i32, ptr %4, align 4
  %28 = icmp ne i32 %27, 0
  %29 = select i1 %28, ptr @.str.154, ptr @.str.155
  store ptr %29, ptr %7, align 8
  %30 = load i64, ptr %3, align 8
  %31 = uitofp i64 %30 to double
  %32 = fdiv double %31, 1.000000e+03
  store double %32, ptr %8, align 8
  %33 = load ptr, ptr @stdout, align 8
  %34 = load ptr, ptr %7, align 8
  %35 = load double, ptr %8, align 8
  %36 = call i32 (ptr, ptr, ...) @fprintf(ptr noundef %33, ptr noundef %34, double noundef %35) #12
  br label %45

37:                                               ; preds = %23
  %38 = load i32, ptr %4, align 4
  %39 = icmp ne i32 %38, 0
  %40 = select i1 %39, ptr @.str.156, ptr @.str.157
  store ptr %40, ptr %9, align 8
  %41 = load ptr, ptr @stdout, align 8
  %42 = load ptr, ptr %9, align 8
  %43 = load i64, ptr %3, align 8
  %44 = call i32 (ptr, ptr, ...) @fprintf(ptr noundef %41, ptr noundef %42, i64 noundef %43) #12
  br label %45

45:                                               ; preds = %37, %26
  br label %46

46:                                               ; preds = %45, %12
  ret void
}

; Function Attrs: nounwind uwtable
define internal void @print_time(i64 noundef %0) #0 {
  %2 = alloca i64, align 8
  store i64 %0, ptr %2, align 8
  %3 = load i64, ptr %2, align 8
  %4 = icmp sge i64 %3, 3600
  br i1 %4, label %5, label %13

5:                                                ; preds = %1
  %6 = load ptr, ptr @stdout, align 8
  %7 = load i64, ptr %2, align 8
  %8 = sdiv i64 %7, 3600
  %9 = load i64, ptr %2, align 8
  %10 = srem i64 %9, 3600
  %11 = sdiv i64 %10, 60
  %12 = call i32 (ptr, ptr, ...) @fprintf(ptr noundef %6, ptr noundef @.str.149, i64 noundef %8, i64 noundef %11) #12
  br label %28

13:                                               ; preds = %1
  %14 = load i64, ptr %2, align 8
  %15 = icmp sge i64 %14, 60
  br i1 %15, label %16, label %23

16:                                               ; preds = %13
  %17 = load ptr, ptr @stdout, align 8
  %18 = load i64, ptr %2, align 8
  %19 = sdiv i64 %18, 60
  %20 = load i64, ptr %2, align 8
  %21 = srem i64 %20, 60
  %22 = call i32 (ptr, ptr, ...) @fprintf(ptr noundef %17, ptr noundef @.str.150, i64 noundef %19, i64 noundef %21) #12
  br label %27

23:                                               ; preds = %13
  %24 = load ptr, ptr @stdout, align 8
  %25 = load i64, ptr %2, align 8
  %26 = call i32 (ptr, ptr, ...) @fprintf(ptr noundef %24, ptr noundef @.str.151, i64 noundef %25) #12
  br label %27

27:                                               ; preds = %23, %16
  br label %28

28:                                               ; preds = %27, %5
  ret void
}

; Function Attrs: nounwind uwtable
define internal i32 @sigload_callback(i64 noundef %0, i64 noundef %1, ptr noundef %2) #0 {
  %4 = alloca i32, align 4
  %5 = alloca i64, align 8
  %6 = alloca i64, align 8
  %7 = alloca ptr, align 8
  %8 = alloca i64, align 8
  %9 = alloca i64, align 8
  %10 = alloca ptr, align 8
  %11 = alloca i32, align 4
  %12 = alloca i32, align 4
  %13 = alloca i32, align 4
  %14 = alloca double, align 8
  store i64 %0, ptr %5, align 8
  store i64 %1, ptr %6, align 8
  store ptr %2, ptr %7, align 8
  store i64 0, ptr %8, align 8
  store i64 0, ptr %9, align 8
  %15 = load ptr, ptr %7, align 8
  store ptr %15, ptr %10, align 8
  store i32 0, ptr %11, align 4
  store i32 25, ptr %12, align 4
  store i32 0, ptr %13, align 4
  store double 0.000000e+00, ptr %14, align 8
  %16 = load i64, ptr %5, align 8
  %17 = icmp ule i64 %16, 0
  br i1 %17, label %24, label %18

18:                                               ; preds = %3
  %19 = load ptr, ptr %10, align 8
  %20 = getelementptr inbounds %struct.sigload_progress, ptr %19, i32 0, i32 2
  %21 = load i8, ptr %20, align 8
  %22 = zext i8 %21 to i32
  %23 = icmp ne i32 %22, 0
  br i1 %23, label %24, label %25

24:                                               ; preds = %18, %3
  store i32 0, ptr %4, align 4
  br label %143

25:                                               ; preds = %18
  %26 = load i64, ptr %6, align 8
  %27 = uitofp i64 %26 to double
  %28 = load i64, ptr %5, align 8
  %29 = uitofp i64 %28 to double
  %30 = fdiv double %27, %29
  store double %30, ptr %14, align 8
  %31 = load double, ptr %14, align 8
  %32 = load i32, ptr %12, align 4
  %33 = uitofp i32 %32 to double
  %34 = fmul double %31, %33
  %35 = call double @llvm.round.f64(double %34)
  %36 = fptoui double %35 to i32
  store i32 %36, ptr %13, align 4
  %37 = load ptr, ptr %10, align 8
  %38 = getelementptr inbounds %struct.sigload_progress, ptr %37, i32 0, i32 0
  %39 = load i64, ptr %38, align 8
  %40 = icmp eq i64 0, %39
  br i1 %40, label %41, label %45

41:                                               ; preds = %25
  %42 = call i64 @time(ptr noundef null) #12
  %43 = load ptr, ptr %10, align 8
  %44 = getelementptr inbounds %struct.sigload_progress, ptr %43, i32 0, i32 0
  store i64 %42, ptr %44, align 8
  br label %45

45:                                               ; preds = %41, %25
  %46 = call i64 @time(ptr noundef null) #12
  %47 = load ptr, ptr %10, align 8
  %48 = getelementptr inbounds %struct.sigload_progress, ptr %47, i32 0, i32 0
  %49 = load i64, ptr %48, align 8
  %50 = sub nsw i64 %46, %49
  store i64 %50, ptr %8, align 8
  %51 = load i64, ptr %8, align 8
  %52 = load ptr, ptr %10, align 8
  %53 = getelementptr inbounds %struct.sigload_progress, ptr %52, i32 0, i32 1
  store i64 %51, ptr %53, align 8
  %54 = load ptr, ptr @stdout, align 8
  %55 = call i32 (ptr, ptr, ...) @fprintf(ptr noundef %54, ptr noundef @.str.136) #12
  %56 = load double, ptr %14, align 8
  %57 = fcmp ole double %56, 0.000000e+00
  br i1 %57, label %58, label %64

58:                                               ; preds = %45
  %59 = load ptr, ptr @stdout, align 8
  %60 = call i32 (ptr, ptr, ...) @fprintf(ptr noundef %59, ptr noundef @.str.137) #12
  %61 = load i64, ptr %8, align 8
  call void @print_time(i64 noundef %61)
  %62 = load ptr, ptr @stdout, align 8
  %63 = call i32 (ptr, ptr, ...) @fprintf(ptr noundef %62, ptr noundef @.str.138) #12
  br label %81

64:                                               ; preds = %45
  %65 = load i64, ptr %8, align 8
  %66 = sitofp i64 %65 to double
  %67 = load double, ptr %14, align 8
  %68 = fdiv double %66, %67
  %69 = load i64, ptr %8, align 8
  %70 = sitofp i64 %69 to double
  %71 = fsub double %68, %70
  %72 = fptosi double %71 to i64
  store i64 %72, ptr %9, align 8
  %73 = load ptr, ptr @stdout, align 8
  %74 = call i32 (ptr, ptr, ...) @fprintf(ptr noundef %73, ptr noundef @.str.137) #12
  %75 = load i64, ptr %8, align 8
  call void @print_time(i64 noundef %75)
  %76 = load ptr, ptr @stdout, align 8
  %77 = call i32 (ptr, ptr, ...) @fprintf(ptr noundef %76, ptr noundef @.str.139) #12
  %78 = load i64, ptr %9, align 8
  call void @print_time(i64 noundef %78)
  %79 = load ptr, ptr @stdout, align 8
  %80 = call i32 (ptr, ptr, ...) @fprintf(ptr noundef %79, ptr noundef @.str.140) #12
  br label %81

81:                                               ; preds = %64, %58
  %82 = load ptr, ptr @stdout, align 8
  %83 = call i32 (ptr, ptr, ...) @fprintf(ptr noundef %82, ptr noundef @.str.141) #12
  %84 = load i32, ptr %13, align 4
  %85 = icmp ugt i32 %84, 0
  br i1 %85, label %86, label %107

86:                                               ; preds = %81
  %87 = load i32, ptr %13, align 4
  %88 = icmp ugt i32 %87, 1
  br i1 %88, label %89, label %102

89:                                               ; preds = %86
  store i32 0, ptr %11, align 4
  br label %90

90:                                               ; preds = %98, %89
  %91 = load i32, ptr %11, align 4
  %92 = load i32, ptr %13, align 4
  %93 = sub i32 %92, 1
  %94 = icmp ult i32 %91, %93
  br i1 %94, label %95, label %101

95:                                               ; preds = %90
  %96 = load ptr, ptr @stdout, align 8
  %97 = call i32 (ptr, ptr, ...) @fprintf(ptr noundef %96, ptr noundef @.str.142) #12
  br label %98

98:                                               ; preds = %95
  %99 = load i32, ptr %11, align 4
  %100 = add i32 %99, 1
  store i32 %100, ptr %11, align 4
  br label %90

101:                                              ; preds = %90
  br label %102

102:                                              ; preds = %101, %86
  %103 = load ptr, ptr @stdout, align 8
  %104 = call i32 (ptr, ptr, ...) @fprintf(ptr noundef %103, ptr noundef @.str.143) #12
  %105 = load i32, ptr %11, align 4
  %106 = add i32 %105, 1
  store i32 %106, ptr %11, align 4
  br label %107

107:                                              ; preds = %102, %81
  br label %108

108:                                              ; preds = %115, %107
  %109 = load i32, ptr %11, align 4
  %110 = load i32, ptr %12, align 4
  %111 = icmp ult i32 %109, %110
  br i1 %111, label %112, label %118

112:                                              ; preds = %108
  %113 = load ptr, ptr @stdout, align 8
  %114 = call i32 (ptr, ptr, ...) @fprintf(ptr noundef %113, ptr noundef @.str.140) #12
  br label %115

115:                                              ; preds = %112
  %116 = load i32, ptr %11, align 4
  %117 = add i32 %116, 1
  store i32 %117, ptr %11, align 4
  br label %108

118:                                              ; preds = %108
  %119 = load ptr, ptr @stdout, align 8
  %120 = call i32 (ptr, ptr, ...) @fprintf(ptr noundef %119, ptr noundef @.str.144) #12
  %121 = load i64, ptr %6, align 8
  call void @print_num_sigs(i64 noundef %121, i32 noundef 1)
  %122 = load ptr, ptr @stdout, align 8
  %123 = call i32 (ptr, ptr, ...) @fprintf(ptr noundef %122, ptr noundef @.str.145) #12
  %124 = load i64, ptr %5, align 8
  call void @print_num_sigs(i64 noundef %124, i32 noundef 0)
  %125 = load ptr, ptr @stdout, align 8
  %126 = call i32 (ptr, ptr, ...) @fprintf(ptr noundef %125, ptr noundef @.str.146) #12
  %127 = load i64, ptr %6, align 8
  %128 = load i64, ptr %5, align 8
  %129 = icmp ult i64 %127, %128
  br i1 %129, label %130, label %133

130:                                              ; preds = %118
  %131 = load ptr, ptr @stdout, align 8
  %132 = call i32 (ptr, ptr, ...) @fprintf(ptr noundef %131, ptr noundef @.str.147) #12
  br label %138

133:                                              ; preds = %118
  %134 = load ptr, ptr @stdout, align 8
  %135 = call i32 (ptr, ptr, ...) @fprintf(ptr noundef %134, ptr noundef @.str.52) #12
  %136 = load ptr, ptr %10, align 8
  %137 = getelementptr inbounds %struct.sigload_progress, ptr %136, i32 0, i32 2
  store i8 1, ptr %137, align 8
  br label %138

138:                                              ; preds = %133, %130
  %139 = load ptr, ptr @stdout, align 8
  %140 = call i32 (ptr, ptr, ...) @fprintf(ptr noundef %139, ptr noundef @.str.148) #12
  %141 = load ptr, ptr @stdout, align 8
  %142 = call i32 @fflush(ptr noundef %141)
  store i32 0, ptr %4, align 4
  br label %143

143:                                              ; preds = %138, %24
  %144 = load i32, ptr %4, align 4
  ret i32 %144
}