; Function Attrs: nounwind uwtable
define internal noundef i32 @sigload_callback(i64 noundef %0, i64 noundef %1, ptr nocapture noundef %2) #0 {
  %4 = icmp eq i64 %0, 0
  br i1 %4, label %143, label %5

5:                                                ; preds = %3
  %6 = getelementptr inbounds i8, ptr %2, i64 16
  %7 = load i8, ptr %6, align 8
  %.not = icmp eq i8 %7, 0
  br i1 %.not, label %8, label %143

8:                                                ; preds = %5
  %9 = uitofp i64 %1 to double
  %10 = uitofp i64 %0 to double
  %11 = fdiv double %9, %10
  %12 = fmul double %11, 2.500000e+01
  %13 = tail call double @llvm.round.f64(double %12)
  %14 = fptoui double %13 to i32
  %15 = load i64, ptr %2, align 8
  %16 = icmp eq i64 %15, 0
  br i1 %16, label %17, label %19

17:                                               ; preds = %8
  %18 = tail call i64 @time(ptr noundef null) #21
  store i64 %18, ptr %2, align 8
  br label %19

19:                                               ; preds = %17, %8
  %20 = tail call i64 @time(ptr noundef null) #21
  %21 = load i64, ptr %2, align 8
  %22 = sub nsw i64 %20, %21
  %23 = getelementptr inbounds i8, ptr %2, i64 8
  store i64 %22, ptr %23, align 8
  %24 = load ptr, ptr @stdout, align 8
  %25 = tail call i64 @fwrite(ptr nonnull @.str.136, i64 5, i64 1, ptr %24)
  %26 = fcmp ugt double %11, 0.000000e+00
  br i1 %26, label %48, label %27

27:                                               ; preds = %19
  %28 = load ptr, ptr @stdout, align 8
  %29 = tail call i64 @fwrite(ptr nonnull @.str.137, i64 11, i64 1, ptr %28)
  %30 = icmp sgt i64 %22, 3599
  br i1 %30, label %31, label %37

31:                                               ; preds = %27
  %32 = load ptr, ptr @stdout, align 8
  %33 = udiv i64 %22, 3600
  %34 = urem i64 %22, 3600
  %.lhs.trunc.i = trunc nuw nsw i64 %34 to i16
  %35 = udiv i16 %.lhs.trunc.i, 60
  %.zext.i = zext nneg i16 %35 to i64
  %36 = tail call i32 (ptr, ptr, ...) @fprintf(ptr noundef %32, ptr noundef nonnull @.str.149, i64 noundef %33, i64 noundef %.zext.i) #21
  br label %print_time.exit

37:                                               ; preds = %27
  %38 = icmp sgt i64 %22, 59
  %39 = load ptr, ptr @stdout, align 8
  br i1 %38, label %40, label %44

40:                                               ; preds = %37
  %.lhs.trunc7.i = trunc i64 %22 to i16
  %41 = udiv i16 %.lhs.trunc7.i, 60
  %.zext8.i = zext nneg i16 %41 to i64
  %42 = urem i16 %.lhs.trunc7.i, 60
  %.zext10.i = zext nneg i16 %42 to i64
  %43 = tail call i32 (ptr, ptr, ...) @fprintf(ptr noundef %39, ptr noundef nonnull @.str.150, i64 noundef %.zext8.i, i64 noundef %.zext10.i) #21
  br label %print_time.exit

44:                                               ; preds = %37
  %45 = tail call i32 (ptr, ptr, ...) @fprintf(ptr noundef %39, ptr noundef nonnull @.str.151, i64 noundef %22) #21
  br label %print_time.exit

print_time.exit:                                  ; preds = %31, %40, %44
  %46 = load ptr, ptr @stdout, align 8
  %47 = tail call i64 @fwrite(ptr nonnull @.str.138, i64 15, i64 1, ptr %46)
  br label %90

48:                                               ; preds = %19
  %49 = sitofp i64 %22 to double
  %50 = fdiv double %49, %11
  %51 = fsub double %50, %49
  %52 = fptosi double %51 to i64
  %53 = load ptr, ptr @stdout, align 8
  %54 = tail call i64 @fwrite(ptr nonnull @.str.137, i64 11, i64 1, ptr %53)
  %55 = icmp sgt i64 %22, 3599
  br i1 %55, label %56, label %62

56:                                               ; preds = %48
  %57 = load ptr, ptr @stdout, align 8
  %58 = udiv i64 %22, 3600
  %59 = urem i64 %22, 3600
  %.lhs.trunc.i48 = trunc nuw nsw i64 %59 to i16
  %60 = udiv i16 %.lhs.trunc.i48, 60
  %.zext.i49 = zext nneg i16 %60 to i64
  %61 = tail call i32 (ptr, ptr, ...) @fprintf(ptr noundef %57, ptr noundef nonnull @.str.149, i64 noundef %58, i64 noundef %.zext.i49) #21
  br label %print_time.exit50

62:                                               ; preds = %48
  %63 = icmp sgt i64 %22, 59
  %64 = load ptr, ptr @stdout, align 8
  br i1 %63, label %65, label %69

65:                                               ; preds = %62
  %.lhs.trunc7.i45 = trunc i64 %22 to i16
  %66 = udiv i16 %.lhs.trunc7.i45, 60
  %.zext8.i46 = zext nneg i16 %66 to i64
  %67 = urem i16 %.lhs.trunc7.i45, 60
  %.zext10.i47 = zext nneg i16 %67 to i64
  %68 = tail call i32 (ptr, ptr, ...) @fprintf(ptr noundef %64, ptr noundef nonnull @.str.150, i64 noundef %.zext8.i46, i64 noundef %.zext10.i47) #21
  br label %print_time.exit50

69:                                               ; preds = %62
  %70 = tail call i32 (ptr, ptr, ...) @fprintf(ptr noundef %64, ptr noundef nonnull @.str.151, i64 noundef %22) #21
  br label %print_time.exit50

print_time.exit50:                                ; preds = %56, %65, %69
  %71 = load ptr, ptr @stdout, align 8
  %72 = tail call i64 @fwrite(ptr nonnull @.str.139, i64 7, i64 1, ptr %71)
  %73 = icmp sgt i64 %52, 3599
  br i1 %73, label %74, label %80

74:                                               ; preds = %print_time.exit50
  %75 = load ptr, ptr @stdout, align 8
  %76 = udiv i64 %52, 3600
  %77 = urem i64 %52, 3600
  %.lhs.trunc.i54 = trunc nuw nsw i64 %77 to i16
  %78 = udiv i16 %.lhs.trunc.i54, 60
  %.zext.i55 = zext nneg i16 %78 to i64
  %79 = tail call i32 (ptr, ptr, ...) @fprintf(ptr noundef %75, ptr noundef nonnull @.str.149, i64 noundef %76, i64 noundef %.zext.i55) #21
  br label %print_time.exit56

80:                                               ; preds = %print_time.exit50
  %81 = icmp sgt i64 %52, 59
  %82 = load ptr, ptr @stdout, align 8
  br i1 %81, label %83, label %87

83:                                               ; preds = %80
  %.lhs.trunc7.i51 = trunc i64 %52 to i16
  %84 = udiv i16 %.lhs.trunc7.i51, 60
  %.zext8.i52 = zext nneg i16 %84 to i64
  %85 = urem i16 %.lhs.trunc7.i51, 60
  %.zext10.i53 = zext nneg i16 %85 to i64
  %86 = tail call i32 (ptr, ptr, ...) @fprintf(ptr noundef %82, ptr noundef nonnull @.str.150, i64 noundef %.zext8.i52, i64 noundef %.zext10.i53) #21
  br label %print_time.exit56

87:                                               ; preds = %80
  %88 = tail call i32 (ptr, ptr, ...) @fprintf(ptr noundef %82, ptr noundef nonnull @.str.151, i64 noundef %52) #21
  br label %print_time.exit56

print_time.exit56:                                ; preds = %74, %83, %87
  %89 = load ptr, ptr @stdout, align 8
  %fputc = tail call i32 @fputc(i32 32, ptr %89)
  br label %90

90:                                               ; preds = %print_time.exit56, %print_time.exit
  %91 = load ptr, ptr @stdout, align 8
  %fputc36 = tail call i32 @fputc(i32 91, ptr %91)
  switch i32 %14, label %.lr.ph.preheader [
    i32 0, label %.lr.ph60.preheader
    i32 1, label %.thread65
  ]

.lr.ph.preheader:                                 ; preds = %90
  %92 = add i32 %14, -2
  br label %.lr.ph

.thread65:                                        ; preds = %90
  %93 = load ptr, ptr @stdout, align 8
  %fputc3967 = tail call i32 @fputc(i32 62, ptr %93)
  br label %.lr.ph60.preheader

.lr.ph:                                           ; preds = %.lr.ph.preheader, %.lr.ph
  %.03358 = phi i32 [ %95, %.lr.ph ], [ 0, %.lr.ph.preheader ]
  %94 = load ptr, ptr @stdout, align 8
  %fputc44 = tail call i32 @fputc(i32 61, ptr %94)
  %95 = add nuw i32 %.03358, 1
  %exitcond.not = icmp eq i32 %.03358, %92
  br i1 %exitcond.not, label %96, label %.lr.ph

96:                                               ; preds = %.lr.ph
  %97 = load ptr, ptr @stdout, align 8
  %fputc39 = tail call i32 @fputc(i32 62, ptr %97)
  %98 = icmp ult i32 %14, 25
  br i1 %98, label %.lr.ph60.preheader, label %._crit_edge

.lr.ph60.preheader:                               ; preds = %90, %.thread65, %96
  br label %.lr.ph60

.lr.ph60:                                         ; preds = %.lr.ph60.preheader, %.lr.ph60
  %.359 = phi i32 [ %100, %.lr.ph60 ], [ %14, %.lr.ph60.preheader ]
  %99 = load ptr, ptr @stdout, align 8
  %fputc43 = tail call i32 @fputc(i32 32, ptr %99)
  %100 = add i32 %.359, 1
  %exitcond62.not = icmp eq i32 %100, 25
  br i1 %exitcond62.not, label %._crit_edge, label %.lr.ph60

._crit_edge:                                      ; preds = %.lr.ph60, %96
  %101 = load ptr, ptr @stdout, align 8
  %102 = tail call i64 @fwrite(ptr nonnull @.str.144, i64 2, i64 1, ptr %101)
  %103 = icmp ugt i64 %1, 999999
  br i1 %103, label %104, label %108

104:                                              ; preds = %._crit_edge
  %105 = fdiv double %9, 1.000000e+06
  %106 = load ptr, ptr @stdout, align 8
  %107 = tail call i32 (ptr, ptr, ...) @fprintf(ptr noundef %106, ptr noundef nonnull @.str.152, double noundef %105) #21
  br label %print_num_sigs.exit

108:                                              ; preds = %._crit_edge
  %109 = icmp ugt i64 %1, 999
  br i1 %109, label %110, label %114

110:                                              ; preds = %108
  %111 = fdiv double %9, 1.000000e+03
  %112 = load ptr, ptr @stdout, align 8
  %113 = tail call i32 (ptr, ptr, ...) @fprintf(ptr noundef %112, ptr noundef nonnull @.str.154, double noundef %111) #21
  br label %print_num_sigs.exit

114:                                              ; preds = %108
  %115 = load ptr, ptr @stdout, align 8
  %116 = tail call i32 (ptr, ptr, ...) @fprintf(ptr noundef %115, ptr noundef nonnull @.str.156, i64 noundef %1) #21
  br label %print_num_sigs.exit

print_num_sigs.exit:                              ; preds = %104, %110, %114
  %117 = load ptr, ptr @stdout, align 8
  %fputc40 = tail call i32 @fputc(i32 47, ptr %117)
  %118 = icmp ugt i64 %0, 999999
  br i1 %118, label %119, label %123

119:                                              ; preds = %print_num_sigs.exit
  %120 = fdiv double %10, 1.000000e+06
  %121 = load ptr, ptr @stdout, align 8
  %122 = tail call i32 (ptr, ptr, ...) @fprintf(ptr noundef %121, ptr noundef nonnull @.str.153, double noundef %120) #21
  br label %print_num_sigs.exit57

123:                                              ; preds = %print_num_sigs.exit
  %124 = icmp ugt i64 %0, 999
  br i1 %124, label %125, label %129

125:                                              ; preds = %123
  %126 = fdiv double %10, 1.000000e+03
  %127 = load ptr, ptr @stdout, align 8
  %128 = tail call i32 (ptr, ptr, ...) @fprintf(ptr noundef %127, ptr noundef nonnull @.str.155, double noundef %126) #21
  br label %print_num_sigs.exit57

129:                                              ; preds = %123
  %130 = load ptr, ptr @stdout, align 8
  %131 = tail call i32 (ptr, ptr, ...) @fprintf(ptr noundef %130, ptr noundef nonnull @.str.157, i64 noundef %0) #21
  br label %print_num_sigs.exit57

print_num_sigs.exit57:                            ; preds = %119, %125, %129
  %132 = load ptr, ptr @stdout, align 8
  %133 = tail call i64 @fwrite(ptr nonnull @.str.146, i64 9, i64 1, ptr %132)
  %134 = icmp ult i64 %1, %0
  %135 = load ptr, ptr @stdout, align 8
  br i1 %134, label %136, label %137

136:                                              ; preds = %print_num_sigs.exit57
  %fputc42 = tail call i32 @fputc(i32 13, ptr %135)
  br label %138

137:                                              ; preds = %print_num_sigs.exit57
  %fputc41 = tail call i32 @fputc(i32 10, ptr %135)
  store i8 1, ptr %6, align 8
  br label %138

138:                                              ; preds = %137, %136
  %139 = load ptr, ptr @stdout, align 8
  %140 = tail call i64 @fwrite(ptr nonnull @.str.148, i64 5, i64 1, ptr %139)
  %141 = load ptr, ptr @stdout, align 8
  %142 = tail call i32 @fflush(ptr noundef %141)
  br label %143

143:                                              ; preds = %3, %5, %138
  ret i32 0
}